
_main:

;UART.c,61 :: 		void main(){
;UART.c,63 :: 		C1ON_bit = 0;               // Disable comparators
	BCF         C1ON_bit+0, BitPos(C1ON_bit+0) 
;UART.c,64 :: 		C2ON_bit = 0;
	BCF         C2ON_bit+0, BitPos(C2ON_bit+0) 
;UART.c,67 :: 		TRISA = 0;           // set direction to be output
	CLRF        TRISA+0 
;UART.c,68 :: 		TRISB = 0;
	CLRF        TRISB+0 
;UART.c,69 :: 		TRISC = 0;
	CLRF        TRISC+0 
;UART.c,71 :: 		PORTA = 0;
	CLRF        PORTA+0 
;UART.c,72 :: 		PORTB = 0;
	CLRF        PORTB+0 
;UART.c,73 :: 		PORTB = 0;
	CLRF        PORTB+0 
;UART.c,74 :: 		PORTC = 0;
	CLRF        PORTC+0 
;UART.c,79 :: 		PORTB.B0 = 1;
	BSF         PORTB+0, 0 
;UART.c,83 :: 		WDTCON.SWDTEN = 0;
	BCF         WDTCON+0, 0 
;UART.c,86 :: 		TRISA.B1 = 1;
	BSF         TRISA+0, 1 
;UART.c,87 :: 		ANSELA.B1 = 0;
	BCF         ANSELA+0, 1 
;UART.c,92 :: 		ledBlink(5);
	MOVLW       5
	MOVWF       FARG_ledBlink_nbBlink+0 
	MOVLW       0
	MOVWF       FARG_ledBlink_nbBlink+1 
	CALL        _ledBlink+0, 0
;UART.c,95 :: 		UART1_Init(1200);
	BSF         BAUDCON+0, 3, 0
	MOVLW       6
	MOVWF       SPBRGH+0 
	MOVLW       130
	MOVWF       SPBRG+0 
	BSF         TXSTA+0, 2, 0
	CALL        _UART1_Init+0, 0
;UART.c,96 :: 		UART2_Init(1200);
	BSF         BAUDCON2+0, 3, 0
	MOVLW       6
	MOVWF       SPBRGH2+0 
	MOVLW       130
	MOVWF       SPBRG2+0 
	BSF         TXSTA2+0, 2, 0
	CALL        _UART2_Init+0, 0
;UART.c,99 :: 		Delay_1sec();
	CALL        _Delay_1sec+0, 0
;UART.c,100 :: 		getTemperature_1wire();
	CALL        _getTemperature_1wire+0, 0
;UART.c,101 :: 		Delay_1sec();
	CALL        _Delay_1sec+0, 0
;UART.c,102 :: 		getTemperature_1wire();
	CALL        _getTemperature_1wire+0, 0
;UART.c,103 :: 		Delay_1sec();
	CALL        _Delay_1sec+0, 0
;UART.c,106 :: 		ledBlink(5);
	MOVLW       5
	MOVWF       FARG_ledBlink_nbBlink+0 
	MOVLW       0
	MOVWF       FARG_ledBlink_nbBlink+1 
	CALL        _ledBlink+0, 0
;UART.c,111 :: 		while(1) {
L_main0:
;UART.c,113 :: 		message[0]='\0' ;
	CLRF        _message+0 
;UART.c,116 :: 		strcat(message, "\nADCO 040726006524 ;\r\nOPTARIF HC.. <\r\nISOUSC 25 =\r\nHCHC 024770643 '\r\nHCHP 056535914 9\r\nPTEC HC.. S\r\nIINST1 000 H\r\nIINST2 001 J\r\nIINST3 001 K\r\nIMAX1 033 6\r\nIMAX2 039 =\r\nIMAX3 030 5\r\nPMAX 17040 2\r\nPAPP 00470 ,\r\nHHPHC D /\r\nMOTDETAT 000000 B\r\nPPOT 00 #\r");
	MOVLW       _message+0
	MOVWF       FARG_strcat_to+0 
	MOVLW       hi_addr(_message+0)
	MOVWF       FARG_strcat_to+1 
	MOVLW       ?lstr2_UART+0
	MOVWF       FARG_strcat_from+0 
	MOVLW       hi_addr(?lstr2_UART+0)
	MOVWF       FARG_strcat_from+1 
	CALL        _strcat+0, 0
;UART.c,127 :: 		while (!checkTrameChecksum())
L_main2:
	CALL        _checkTrameChecksum+0, 0
	MOVF        R0, 0 
	IORWF       R1, 0 
	BTFSS       STATUS+0, 2 
	GOTO        L_main3
;UART.c,130 :: 		PORTA.B3 = 1;
	BSF         PORTA+0, 3 
;UART.c,132 :: 		getTrameTeleinfo();
	CALL        _getTrameTeleinfo+0, 0
;UART.c,135 :: 		PORTA.B3 = 0;
	BCF         PORTA+0, 3 
;UART.c,136 :: 		}
	GOTO        L_main2
L_main3:
;UART.c,139 :: 		ledBlink(2);
	MOVLW       2
	MOVWF       FARG_ledBlink_nbBlink+0 
	MOVLW       0
	MOVWF       FARG_ledBlink_nbBlink+1 
	CALL        _ledBlink+0, 0
;UART.c,142 :: 		getTemperature_1wire();
	CALL        _getTemperature_1wire+0, 0
;UART.c,143 :: 		generateTempUnit();
	CALL        _generateTempUnit+0, 0
;UART.c,144 :: 		generateVddUnit();
	CALL        _generateVddUnit+0, 0
;UART.c,154 :: 		PORTB.B0 = 0;
	BCF         PORTB+0, 0 
;UART.c,156 :: 		Delay_ms(1500);
	MOVLW       16
	MOVWF       R11, 0
	MOVLW       57
	MOVWF       R12, 0
	MOVLW       13
	MOVWF       R13, 0
L_main4:
	DECFSZ      R13, 1, 1
	BRA         L_main4
	DECFSZ      R12, 1, 1
	BRA         L_main4
	DECFSZ      R11, 1, 1
	BRA         L_main4
	NOP
	NOP
;UART.c,158 :: 		sendcount = 0;
	CLRF        _sendcount+0 
	CLRF        _sendcount+1 
;UART.c,159 :: 		while(sendcount < numberToSend)
L_main5:
	MOVLW       128
	XORWF       _sendcount+1, 0 
	MOVWF       R0 
	MOVLW       128
	SUBWF       R0, 0 
	BTFSS       STATUS+0, 2 
	GOTO        L__main69
	MOVLW       8
	SUBWF       _sendcount+0, 0 
L__main69:
	BTFSC       STATUS+0, 0 
	GOTO        L_main6
;UART.c,169 :: 		UART1_Write(ConvertSerial_8N1_to_7E1(trameStartBit));
	MOVLW       2
	MOVWF       FARG_ConvertSerial_8N1_to_7E1_serialInput+0 
	CALL        _ConvertSerial_8N1_to_7E1+0, 0
	MOVF        R0, 0 
	MOVWF       FARG_UART1_Write_data_+0 
	CALL        _UART1_Write+0, 0
;UART.c,170 :: 		UART1_Write_Text_7E1(message);
	MOVLW       _message+0
	MOVWF       FARG_UART1_Write_Text_7E1_text+0 
	MOVLW       hi_addr(_message+0)
	MOVWF       FARG_UART1_Write_Text_7E1_text+1 
	CALL        _UART1_Write_Text_7E1+0, 0
;UART.c,171 :: 		UART1_Write_Text_7E1(temp_unit);
	MOVLW       _temp_unit+0
	MOVWF       FARG_UART1_Write_Text_7E1_text+0 
	MOVLW       hi_addr(_temp_unit+0)
	MOVWF       FARG_UART1_Write_Text_7E1_text+1 
	CALL        _UART1_Write_Text_7E1+0, 0
;UART.c,172 :: 		UART1_Write_Text_7E1(vdd_unit);
	MOVLW       _vdd_unit+0
	MOVWF       FARG_UART1_Write_Text_7E1_text+0 
	MOVLW       hi_addr(_vdd_unit+0)
	MOVWF       FARG_UART1_Write_Text_7E1_text+1 
	CALL        _UART1_Write_Text_7E1+0, 0
;UART.c,173 :: 		UART1_Write(ConvertSerial_8N1_to_7E1(trameEndBit));
	MOVLW       3
	MOVWF       FARG_ConvertSerial_8N1_to_7E1_serialInput+0 
	CALL        _ConvertSerial_8N1_to_7E1+0, 0
	MOVF        R0, 0 
	MOVWF       FARG_UART1_Write_data_+0 
	CALL        _UART1_Write+0, 0
;UART.c,188 :: 		ledBlink(1);
	MOVLW       1
	MOVWF       FARG_ledBlink_nbBlink+0 
	MOVLW       0
	MOVWF       FARG_ledBlink_nbBlink+1 
	CALL        _ledBlink+0, 0
;UART.c,189 :: 		sendcount++;
	INFSNZ      _sendcount+0, 1 
	INCF        _sendcount+1, 1 
;UART.c,190 :: 		}
	GOTO        L_main5
L_main6:
;UART.c,194 :: 		PORTB.B0 = 1;
	BSF         PORTB+0, 0 
;UART.c,196 :: 		while (sleepCount < numberToSleep)
L_main7:
	MOVLW       128
	XORWF       _sleepCount+1, 0 
	MOVWF       R0 
	MOVLW       128
	SUBWF       R0, 0 
	BTFSS       STATUS+0, 2 
	GOTO        L__main70
	MOVLW       5
	SUBWF       _sleepCount+0, 0 
L__main70:
	BTFSC       STATUS+0, 0 
	GOTO        L_main8
;UART.c,199 :: 		Delay_1sec();
	CALL        _Delay_1sec+0, 0
;UART.c,205 :: 		sleepCount++;
	INFSNZ      _sleepCount+0, 1 
	INCF        _sleepCount+1, 1 
;UART.c,206 :: 		}
	GOTO        L_main7
L_main8:
;UART.c,207 :: 		sleepCount = 0;
	CLRF        _sleepCount+0 
	CLRF        _sleepCount+1 
;UART.c,208 :: 		sendcount = 0;
	CLRF        _sendcount+0 
	CLRF        _sendcount+1 
;UART.c,209 :: 		}
	GOTO        L_main0
;UART.c,210 :: 		}
L_end_main:
	GOTO        $+0
; end of _main

_getTemperature_1wire:

;UART.c,214 :: 		void getTemperature_1wire() {
;UART.c,219 :: 		int isNegative = 0;
	CLRF        getTemperature_1wire_isNegative_L0+0 
	CLRF        getTemperature_1wire_isNegative_L0+1 
;UART.c,221 :: 		temp_text = "000.0000";
	MOVLW       ?lstr3_UART+0
	MOVWF       _temp_text+0 
	MOVLW       hi_addr(?lstr3_UART+0)
	MOVWF       _temp_text+1 
;UART.c,225 :: 		Ow_Reset(&PORTA, 1);                         // Onewire reset signal
	MOVLW       PORTA+0
	MOVWF       FARG_Ow_Reset_port+0 
	MOVLW       hi_addr(PORTA+0)
	MOVWF       FARG_Ow_Reset_port+1 
	MOVLW       1
	MOVWF       FARG_Ow_Reset_pin+0 
	CALL        _Ow_Reset+0, 0
;UART.c,226 :: 		Ow_Write(&PORTA, 1, 0xCC);                   // Issue command SKIP_ROM
	MOVLW       PORTA+0
	MOVWF       FARG_Ow_Write_port+0 
	MOVLW       hi_addr(PORTA+0)
	MOVWF       FARG_Ow_Write_port+1 
	MOVLW       1
	MOVWF       FARG_Ow_Write_pin+0 
	MOVLW       204
	MOVWF       FARG_Ow_Write_data_+0 
	CALL        _Ow_Write+0, 0
;UART.c,227 :: 		Ow_Write(&PORTA, 1, 0x44);                   // Issue command CONVERT_T
	MOVLW       PORTA+0
	MOVWF       FARG_Ow_Write_port+0 
	MOVLW       hi_addr(PORTA+0)
	MOVWF       FARG_Ow_Write_port+1 
	MOVLW       1
	MOVWF       FARG_Ow_Write_pin+0 
	MOVLW       68
	MOVWF       FARG_Ow_Write_data_+0 
	CALL        _Ow_Write+0, 0
;UART.c,228 :: 		Delay_us(120);
	MOVLW       79
	MOVWF       R13, 0
L_getTemperature_1wire9:
	DECFSZ      R13, 1, 1
	BRA         L_getTemperature_1wire9
	NOP
	NOP
;UART.c,230 :: 		Ow_Reset(&PORTA, 1);
	MOVLW       PORTA+0
	MOVWF       FARG_Ow_Reset_port+0 
	MOVLW       hi_addr(PORTA+0)
	MOVWF       FARG_Ow_Reset_port+1 
	MOVLW       1
	MOVWF       FARG_Ow_Reset_pin+0 
	CALL        _Ow_Reset+0, 0
;UART.c,231 :: 		Ow_Write(&PORTA, 1, 0xCC);                   // Issue command SKIP_ROM
	MOVLW       PORTA+0
	MOVWF       FARG_Ow_Write_port+0 
	MOVLW       hi_addr(PORTA+0)
	MOVWF       FARG_Ow_Write_port+1 
	MOVLW       1
	MOVWF       FARG_Ow_Write_pin+0 
	MOVLW       204
	MOVWF       FARG_Ow_Write_data_+0 
	CALL        _Ow_Write+0, 0
;UART.c,232 :: 		Ow_Write(&PORTA, 1, 0xBE);                   // Issue command READ_SCRATCHPAD
	MOVLW       PORTA+0
	MOVWF       FARG_Ow_Write_port+0 
	MOVLW       hi_addr(PORTA+0)
	MOVWF       FARG_Ow_Write_port+1 
	MOVLW       1
	MOVWF       FARG_Ow_Write_pin+0 
	MOVLW       190
	MOVWF       FARG_Ow_Write_data_+0 
	CALL        _Ow_Write+0, 0
;UART.c,233 :: 		Delay_ms(120);
	MOVLW       2
	MOVWF       R11, 0
	MOVLW       56
	MOVWF       R12, 0
	MOVLW       173
	MOVWF       R13, 0
L_getTemperature_1wire10:
	DECFSZ      R13, 1, 1
	BRA         L_getTemperature_1wire10
	DECFSZ      R12, 1, 1
	BRA         L_getTemperature_1wire10
	DECFSZ      R11, 1, 1
	BRA         L_getTemperature_1wire10
;UART.c,235 :: 		temp =  Ow_Read(&PORTA, 1);
	MOVLW       PORTA+0
	MOVWF       FARG_Ow_Read_port+0 
	MOVLW       hi_addr(PORTA+0)
	MOVWF       FARG_Ow_Read_port+1 
	MOVLW       1
	MOVWF       FARG_Ow_Read_pin+0 
	CALL        _Ow_Read+0, 0
	MOVF        R0, 0 
	MOVWF       getTemperature_1wire_temp_L0+0 
	MOVLW       0
	MOVWF       getTemperature_1wire_temp_L0+1 
;UART.c,236 :: 		temp = (Ow_Read(&PORTA, 1) << 8) + temp;
	MOVLW       PORTA+0
	MOVWF       FARG_Ow_Read_port+0 
	MOVLW       hi_addr(PORTA+0)
	MOVWF       FARG_Ow_Read_port+1 
	MOVLW       1
	MOVWF       FARG_Ow_Read_pin+0 
	CALL        _Ow_Read+0, 0
	MOVF        R0, 0 
	MOVWF       R5 
	CLRF        R4 
	MOVF        getTemperature_1wire_temp_L0+0, 0 
	ADDWF       R4, 0 
	MOVWF       R2 
	MOVF        getTemperature_1wire_temp_L0+1, 0 
	ADDWFC      R5, 0 
	MOVWF       R3 
	MOVF        R2, 0 
	MOVWF       getTemperature_1wire_temp_L0+0 
	MOVF        R3, 0 
	MOVWF       getTemperature_1wire_temp_L0+1 
;UART.c,239 :: 		if (temp & 0x8000) {
	BTFSS       R3, 7 
	GOTO        L_getTemperature_1wire11
;UART.c,240 :: 		temp_text[0] = '-';
	MOVFF       _temp_text+0, FSR1
	MOVFF       _temp_text+1, FSR1H
	MOVLW       45
	MOVWF       POSTINC1+0 
;UART.c,241 :: 		temp = ~temp + 1;
	COMF        getTemperature_1wire_temp_L0+0, 1 
	COMF        getTemperature_1wire_temp_L0+1, 1 
	INFSNZ      getTemperature_1wire_temp_L0+0, 1 
	INCF        getTemperature_1wire_temp_L0+1, 1 
;UART.c,247 :: 		isNegative = 1;
	MOVLW       1
	MOVWF       getTemperature_1wire_isNegative_L0+0 
	MOVLW       0
	MOVWF       getTemperature_1wire_isNegative_L0+1 
;UART.c,248 :: 		}
L_getTemperature_1wire11:
;UART.c,251 :: 		temp_whole = temp >> RES_SHIFT ;
	MOVF        getTemperature_1wire_temp_L0+0, 0 
	MOVWF       R0 
	MOVF        getTemperature_1wire_temp_L0+1, 0 
	MOVWF       R1 
	RRCF        R1, 1 
	RRCF        R0, 1 
	BCF         R1, 7 
	RRCF        R1, 1 
	RRCF        R0, 1 
	BCF         R1, 7 
	RRCF        R1, 1 
	RRCF        R0, 1 
	BCF         R1, 7 
	RRCF        R1, 1 
	RRCF        R0, 1 
	BCF         R1, 7 
	MOVF        R0, 0 
	MOVWF       getTemperature_1wire_temp_whole_L0+0 
;UART.c,255 :: 		if (temp_whole/100)
	MOVLW       100
	MOVWF       R4 
	CALL        _Div_8x8_U+0, 0
	MOVF        R0, 1 
	BTFSC       STATUS+0, 2 
	GOTO        L_getTemperature_1wire12
;UART.c,256 :: 		temp_text[0] = temp_whole/100  + 48;
	MOVF        _temp_text+0, 0 
	MOVWF       FLOC__getTemperature_1wire+0 
	MOVF        _temp_text+1, 0 
	MOVWF       FLOC__getTemperature_1wire+1 
	MOVLW       100
	MOVWF       R4 
	MOVF        getTemperature_1wire_temp_whole_L0+0, 0 
	MOVWF       R0 
	CALL        _Div_8x8_U+0, 0
	MOVLW       48
	ADDWF       R0, 1 
	MOVFF       FLOC__getTemperature_1wire+0, FSR1
	MOVFF       FLOC__getTemperature_1wire+1, FSR1H
	MOVF        R0, 0 
	MOVWF       POSTINC1+0 
	GOTO        L_getTemperature_1wire13
L_getTemperature_1wire12:
;UART.c,258 :: 		temp_text[0] = '0';
	MOVFF       _temp_text+0, FSR1
	MOVFF       _temp_text+1, FSR1H
	MOVLW       48
	MOVWF       POSTINC1+0 
L_getTemperature_1wire13:
;UART.c,261 :: 		temp_text[1] = (temp_whole/10)%10 + 48;             // Extract tens digit
	MOVLW       1
	ADDWF       _temp_text+0, 0 
	MOVWF       FLOC__getTemperature_1wire+0 
	MOVLW       0
	ADDWFC      _temp_text+1, 0 
	MOVWF       FLOC__getTemperature_1wire+1 
	MOVLW       10
	MOVWF       R4 
	MOVF        getTemperature_1wire_temp_whole_L0+0, 0 
	MOVWF       R0 
	CALL        _Div_8x8_U+0, 0
	MOVLW       10
	MOVWF       R4 
	CALL        _Div_8x8_U+0, 0
	MOVF        R8, 0 
	MOVWF       R0 
	MOVLW       48
	ADDWF       R0, 1 
	MOVFF       FLOC__getTemperature_1wire+0, FSR1
	MOVFF       FLOC__getTemperature_1wire+1, FSR1H
	MOVF        R0, 0 
	MOVWF       POSTINC1+0 
;UART.c,262 :: 		temp_text[2] =  temp_whole%10     + 48;             // Extract ones digit
	MOVLW       2
	ADDWF       _temp_text+0, 0 
	MOVWF       FLOC__getTemperature_1wire+0 
	MOVLW       0
	ADDWFC      _temp_text+1, 0 
	MOVWF       FLOC__getTemperature_1wire+1 
	MOVLW       10
	MOVWF       R4 
	MOVF        getTemperature_1wire_temp_whole_L0+0, 0 
	MOVWF       R0 
	CALL        _Div_8x8_U+0, 0
	MOVF        R8, 0 
	MOVWF       R0 
	MOVLW       48
	ADDWF       R0, 1 
	MOVFF       FLOC__getTemperature_1wire+0, FSR1
	MOVFF       FLOC__getTemperature_1wire+1, FSR1H
	MOVF        R0, 0 
	MOVWF       POSTINC1+0 
;UART.c,265 :: 		temp_fraction  = temp << (4-RES_SHIFT);
	MOVF        getTemperature_1wire_temp_L0+0, 0 
	MOVWF       getTemperature_1wire_temp_fraction_L0+0 
	MOVF        getTemperature_1wire_temp_L0+1, 0 
	MOVWF       getTemperature_1wire_temp_fraction_L0+1 
;UART.c,266 :: 		temp_fraction &= 0x000F;
	MOVLW       15
	ANDWF       getTemperature_1wire_temp_L0+0, 0 
	MOVWF       R0 
	MOVF        getTemperature_1wire_temp_L0+1, 0 
	MOVWF       R1 
	MOVLW       0
	ANDWF       R1, 1 
	MOVF        R0, 0 
	MOVWF       getTemperature_1wire_temp_fraction_L0+0 
	MOVF        R1, 0 
	MOVWF       getTemperature_1wire_temp_fraction_L0+1 
;UART.c,267 :: 		temp_fraction *= 625;
	MOVLW       113
	MOVWF       R4 
	MOVLW       2
	MOVWF       R5 
	CALL        _Mul_16x16_U+0, 0
	MOVF        R0, 0 
	MOVWF       getTemperature_1wire_temp_fraction_L0+0 
	MOVF        R1, 0 
	MOVWF       getTemperature_1wire_temp_fraction_L0+1 
;UART.c,270 :: 		temp_text[4] =  temp_fraction/1000    + 48;         // Extract thousands digit
	MOVLW       4
	ADDWF       _temp_text+0, 0 
	MOVWF       FLOC__getTemperature_1wire+0 
	MOVLW       0
	ADDWFC      _temp_text+1, 0 
	MOVWF       FLOC__getTemperature_1wire+1 
	MOVLW       232
	MOVWF       R4 
	MOVLW       3
	MOVWF       R5 
	CALL        _Div_16x16_U+0, 0
	MOVLW       48
	ADDWF       R0, 1 
	MOVFF       FLOC__getTemperature_1wire+0, FSR1
	MOVFF       FLOC__getTemperature_1wire+1, FSR1H
	MOVF        R0, 0 
	MOVWF       POSTINC1+0 
;UART.c,271 :: 		temp_text[5] = (temp_fraction/100)%10 + 48;         // Extract hundreds digit
	MOVLW       5
	ADDWF       _temp_text+0, 0 
	MOVWF       FLOC__getTemperature_1wire+0 
	MOVLW       0
	ADDWFC      _temp_text+1, 0 
	MOVWF       FLOC__getTemperature_1wire+1 
	MOVLW       100
	MOVWF       R4 
	MOVLW       0
	MOVWF       R5 
	MOVF        getTemperature_1wire_temp_fraction_L0+0, 0 
	MOVWF       R0 
	MOVF        getTemperature_1wire_temp_fraction_L0+1, 0 
	MOVWF       R1 
	CALL        _Div_16x16_U+0, 0
	MOVLW       10
	MOVWF       R4 
	MOVLW       0
	MOVWF       R5 
	CALL        _Div_16x16_U+0, 0
	MOVF        R8, 0 
	MOVWF       R0 
	MOVF        R9, 0 
	MOVWF       R1 
	MOVLW       48
	ADDWF       R0, 1 
	MOVFF       FLOC__getTemperature_1wire+0, FSR1
	MOVFF       FLOC__getTemperature_1wire+1, FSR1H
	MOVF        R0, 0 
	MOVWF       POSTINC1+0 
;UART.c,272 :: 		temp_text[6] = (temp_fraction/10)%10  + 48;         // Extract tens digit
	MOVLW       6
	ADDWF       _temp_text+0, 0 
	MOVWF       FLOC__getTemperature_1wire+0 
	MOVLW       0
	ADDWFC      _temp_text+1, 0 
	MOVWF       FLOC__getTemperature_1wire+1 
	MOVLW       10
	MOVWF       R4 
	MOVLW       0
	MOVWF       R5 
	MOVF        getTemperature_1wire_temp_fraction_L0+0, 0 
	MOVWF       R0 
	MOVF        getTemperature_1wire_temp_fraction_L0+1, 0 
	MOVWF       R1 
	CALL        _Div_16x16_U+0, 0
	MOVLW       10
	MOVWF       R4 
	MOVLW       0
	MOVWF       R5 
	CALL        _Div_16x16_U+0, 0
	MOVF        R8, 0 
	MOVWF       R0 
	MOVF        R9, 0 
	MOVWF       R1 
	MOVLW       48
	ADDWF       R0, 1 
	MOVFF       FLOC__getTemperature_1wire+0, FSR1
	MOVFF       FLOC__getTemperature_1wire+1, FSR1H
	MOVF        R0, 0 
	MOVWF       POSTINC1+0 
;UART.c,273 :: 		temp_text[7] =  temp_fraction%10      + 48;         // Extract ones digit
	MOVLW       7
	ADDWF       _temp_text+0, 0 
	MOVWF       FLOC__getTemperature_1wire+0 
	MOVLW       0
	ADDWFC      _temp_text+1, 0 
	MOVWF       FLOC__getTemperature_1wire+1 
	MOVLW       10
	MOVWF       R4 
	MOVLW       0
	MOVWF       R5 
	MOVF        getTemperature_1wire_temp_fraction_L0+0, 0 
	MOVWF       R0 
	MOVF        getTemperature_1wire_temp_fraction_L0+1, 0 
	MOVWF       R1 
	CALL        _Div_16x16_U+0, 0
	MOVF        R8, 0 
	MOVWF       R0 
	MOVF        R9, 0 
	MOVWF       R1 
	MOVLW       48
	ADDWF       R0, 1 
	MOVFF       FLOC__getTemperature_1wire+0, FSR1
	MOVFF       FLOC__getTemperature_1wire+1, FSR1H
	MOVF        R0, 0 
	MOVWF       POSTINC1+0 
;UART.c,276 :: 		if (isNegative)
	MOVF        getTemperature_1wire_isNegative_L0+0, 0 
	IORWF       getTemperature_1wire_isNegative_L0+1, 0 
	BTFSC       STATUS+0, 2 
	GOTO        L_getTemperature_1wire14
;UART.c,277 :: 		temp_text[0] = '-';
	MOVFF       _temp_text+0, FSR1
	MOVFF       _temp_text+1, FSR1H
	MOVLW       45
	MOVWF       POSTINC1+0 
L_getTemperature_1wire14:
;UART.c,278 :: 		}
L_end_getTemperature_1wire:
	RETURN      0
; end of _getTemperature_1wire

_generateTempUnit:

;UART.c,280 :: 		void generateTempUnit() {
;UART.c,281 :: 		msg_unite[0] = '\0';
	CLRF        _msg_unite+0 
;UART.c,282 :: 		strcat(msg_unite, "TEMP");
	MOVLW       _msg_unite+0
	MOVWF       FARG_strcat_to+0 
	MOVLW       hi_addr(_msg_unite+0)
	MOVWF       FARG_strcat_to+1 
	MOVLW       ?lstr4_UART+0
	MOVWF       FARG_strcat_from+0 
	MOVLW       hi_addr(?lstr4_UART+0)
	MOVWF       FARG_strcat_from+1 
	CALL        _strcat+0, 0
;UART.c,283 :: 		strcat(msg_unite, convertCharToString(0x20));
	MOVLW       32
	MOVWF       FARG_convertCharToString_value+0 
	CALL        _convertCharToString+0, 0
	MOVF        R0, 0 
	MOVWF       FARG_strcat_from+0 
	MOVF        R1, 0 
	MOVWF       FARG_strcat_from+1 
	MOVLW       _msg_unite+0
	MOVWF       FARG_strcat_to+0 
	MOVLW       hi_addr(_msg_unite+0)
	MOVWF       FARG_strcat_to+1 
	CALL        _strcat+0, 0
;UART.c,284 :: 		strcat(msg_unite, temp_text);
	MOVLW       _msg_unite+0
	MOVWF       FARG_strcat_to+0 
	MOVLW       hi_addr(_msg_unite+0)
	MOVWF       FARG_strcat_to+1 
	MOVF        _temp_text+0, 0 
	MOVWF       FARG_strcat_from+0 
	MOVF        _temp_text+1, 0 
	MOVWF       FARG_strcat_from+1 
	CALL        _strcat+0, 0
;UART.c,285 :: 		strcat(msg_unite, convertCharToString(0x20));
	MOVLW       32
	MOVWF       FARG_convertCharToString_value+0 
	CALL        _convertCharToString+0, 0
	MOVF        R0, 0 
	MOVWF       FARG_strcat_from+0 
	MOVF        R1, 0 
	MOVWF       FARG_strcat_from+1 
	MOVLW       _msg_unite+0
	MOVWF       FARG_strcat_to+0 
	MOVLW       hi_addr(_msg_unite+0)
	MOVWF       FARG_strcat_to+1 
	CALL        _strcat+0, 0
;UART.c,288 :: 		generateChecksum();
	CALL        _generateChecksum+0, 0
;UART.c,290 :: 		msg_unite[0] = '\0';
	CLRF        _msg_unite+0 
;UART.c,291 :: 		strcat(msg_unite, convertCharToString(unitStartBit));
	MOVLW       10
	MOVWF       FARG_convertCharToString_value+0 
	CALL        _convertCharToString+0, 0
	MOVF        R0, 0 
	MOVWF       FARG_strcat_from+0 
	MOVF        R1, 0 
	MOVWF       FARG_strcat_from+1 
	MOVLW       _msg_unite+0
	MOVWF       FARG_strcat_to+0 
	MOVLW       hi_addr(_msg_unite+0)
	MOVWF       FARG_strcat_to+1 
	CALL        _strcat+0, 0
;UART.c,292 :: 		strcat(msg_unite, "TEMP");
	MOVLW       _msg_unite+0
	MOVWF       FARG_strcat_to+0 
	MOVLW       hi_addr(_msg_unite+0)
	MOVWF       FARG_strcat_to+1 
	MOVLW       ?lstr5_UART+0
	MOVWF       FARG_strcat_from+0 
	MOVLW       hi_addr(?lstr5_UART+0)
	MOVWF       FARG_strcat_from+1 
	CALL        _strcat+0, 0
;UART.c,293 :: 		strcat(msg_unite, convertCharToString(0x20));
	MOVLW       32
	MOVWF       FARG_convertCharToString_value+0 
	CALL        _convertCharToString+0, 0
	MOVF        R0, 0 
	MOVWF       FARG_strcat_from+0 
	MOVF        R1, 0 
	MOVWF       FARG_strcat_from+1 
	MOVLW       _msg_unite+0
	MOVWF       FARG_strcat_to+0 
	MOVLW       hi_addr(_msg_unite+0)
	MOVWF       FARG_strcat_to+1 
	CALL        _strcat+0, 0
;UART.c,294 :: 		strcat(msg_unite, temp_text);
	MOVLW       _msg_unite+0
	MOVWF       FARG_strcat_to+0 
	MOVLW       hi_addr(_msg_unite+0)
	MOVWF       FARG_strcat_to+1 
	MOVF        _temp_text+0, 0 
	MOVWF       FARG_strcat_from+0 
	MOVF        _temp_text+1, 0 
	MOVWF       FARG_strcat_from+1 
	CALL        _strcat+0, 0
;UART.c,295 :: 		strcat(msg_unite, convertCharToString(0x20));
	MOVLW       32
	MOVWF       FARG_convertCharToString_value+0 
	CALL        _convertCharToString+0, 0
	MOVF        R0, 0 
	MOVWF       FARG_strcat_from+0 
	MOVF        R1, 0 
	MOVWF       FARG_strcat_from+1 
	MOVLW       _msg_unite+0
	MOVWF       FARG_strcat_to+0 
	MOVLW       hi_addr(_msg_unite+0)
	MOVWF       FARG_strcat_to+1 
	CALL        _strcat+0, 0
;UART.c,296 :: 		strcat(msg_unite, convertCharToString(sum));
	MOVF        _sum+0, 0 
	MOVWF       FARG_convertCharToString_value+0 
	CALL        _convertCharToString+0, 0
	MOVF        R0, 0 
	MOVWF       FARG_strcat_from+0 
	MOVF        R1, 0 
	MOVWF       FARG_strcat_from+1 
	MOVLW       _msg_unite+0
	MOVWF       FARG_strcat_to+0 
	MOVLW       hi_addr(_msg_unite+0)
	MOVWF       FARG_strcat_to+1 
	CALL        _strcat+0, 0
;UART.c,297 :: 		strcat(msg_unite, convertCharToString(unitStopBit));
	MOVLW       13
	MOVWF       FARG_convertCharToString_value+0 
	CALL        _convertCharToString+0, 0
	MOVF        R0, 0 
	MOVWF       FARG_strcat_from+0 
	MOVF        R1, 0 
	MOVWF       FARG_strcat_from+1 
	MOVLW       _msg_unite+0
	MOVWF       FARG_strcat_to+0 
	MOVLW       hi_addr(_msg_unite+0)
	MOVWF       FARG_strcat_to+1 
	CALL        _strcat+0, 0
;UART.c,299 :: 		strcpy(temp_unit, msg_unite);
	MOVLW       _temp_unit+0
	MOVWF       FARG_strcpy_to+0 
	MOVLW       hi_addr(_temp_unit+0)
	MOVWF       FARG_strcpy_to+1 
	MOVLW       _msg_unite+0
	MOVWF       FARG_strcpy_from+0 
	MOVLW       hi_addr(_msg_unite+0)
	MOVWF       FARG_strcpy_from+1 
	CALL        _strcpy+0, 0
;UART.c,300 :: 		}
L_end_generateTempUnit:
	RETURN      0
; end of _generateTempUnit

_generateVddUnit:

;UART.c,302 :: 		void generateVddUnit() {
;UART.c,305 :: 		vdd_string[0] = '\0';
	CLRF        generateVddUnit_vdd_string_L0+0 
;UART.c,307 :: 		FloatToStr(getVddVoltage(), vdd_string);
	CALL        _getVddVoltage+0, 0
	MOVF        R0, 0 
	MOVWF       FARG_FloatToStr_fnum+0 
	MOVF        R1, 0 
	MOVWF       FARG_FloatToStr_fnum+1 
	MOVF        R2, 0 
	MOVWF       FARG_FloatToStr_fnum+2 
	MOVF        R3, 0 
	MOVWF       FARG_FloatToStr_fnum+3 
	MOVLW       generateVddUnit_vdd_string_L0+0
	MOVWF       FARG_FloatToStr_str+0 
	MOVLW       hi_addr(generateVddUnit_vdd_string_L0+0)
	MOVWF       FARG_FloatToStr_str+1 
	CALL        _FloatToStr+0, 0
;UART.c,309 :: 		msg_unite[0] = '\0';
	CLRF        _msg_unite+0 
;UART.c,310 :: 		strcat(msg_unite, "VDD");
	MOVLW       _msg_unite+0
	MOVWF       FARG_strcat_to+0 
	MOVLW       hi_addr(_msg_unite+0)
	MOVWF       FARG_strcat_to+1 
	MOVLW       ?lstr6_UART+0
	MOVWF       FARG_strcat_from+0 
	MOVLW       hi_addr(?lstr6_UART+0)
	MOVWF       FARG_strcat_from+1 
	CALL        _strcat+0, 0
;UART.c,311 :: 		strcat(msg_unite, convertCharToString(0x20));
	MOVLW       32
	MOVWF       FARG_convertCharToString_value+0 
	CALL        _convertCharToString+0, 0
	MOVF        R0, 0 
	MOVWF       FARG_strcat_from+0 
	MOVF        R1, 0 
	MOVWF       FARG_strcat_from+1 
	MOVLW       _msg_unite+0
	MOVWF       FARG_strcat_to+0 
	MOVLW       hi_addr(_msg_unite+0)
	MOVWF       FARG_strcat_to+1 
	CALL        _strcat+0, 0
;UART.c,312 :: 		strcat(msg_unite, vdd_string);
	MOVLW       _msg_unite+0
	MOVWF       FARG_strcat_to+0 
	MOVLW       hi_addr(_msg_unite+0)
	MOVWF       FARG_strcat_to+1 
	MOVLW       generateVddUnit_vdd_string_L0+0
	MOVWF       FARG_strcat_from+0 
	MOVLW       hi_addr(generateVddUnit_vdd_string_L0+0)
	MOVWF       FARG_strcat_from+1 
	CALL        _strcat+0, 0
;UART.c,313 :: 		strcat(msg_unite, convertCharToString(0x20));
	MOVLW       32
	MOVWF       FARG_convertCharToString_value+0 
	CALL        _convertCharToString+0, 0
	MOVF        R0, 0 
	MOVWF       FARG_strcat_from+0 
	MOVF        R1, 0 
	MOVWF       FARG_strcat_from+1 
	MOVLW       _msg_unite+0
	MOVWF       FARG_strcat_to+0 
	MOVLW       hi_addr(_msg_unite+0)
	MOVWF       FARG_strcat_to+1 
	CALL        _strcat+0, 0
;UART.c,315 :: 		generateChecksum();
	CALL        _generateChecksum+0, 0
;UART.c,317 :: 		msg_unite[0] = '\0';
	CLRF        _msg_unite+0 
;UART.c,318 :: 		strcat(msg_unite, convertCharToString(unitStartBit));
	MOVLW       10
	MOVWF       FARG_convertCharToString_value+0 
	CALL        _convertCharToString+0, 0
	MOVF        R0, 0 
	MOVWF       FARG_strcat_from+0 
	MOVF        R1, 0 
	MOVWF       FARG_strcat_from+1 
	MOVLW       _msg_unite+0
	MOVWF       FARG_strcat_to+0 
	MOVLW       hi_addr(_msg_unite+0)
	MOVWF       FARG_strcat_to+1 
	CALL        _strcat+0, 0
;UART.c,319 :: 		strcat(msg_unite, "VDD");
	MOVLW       _msg_unite+0
	MOVWF       FARG_strcat_to+0 
	MOVLW       hi_addr(_msg_unite+0)
	MOVWF       FARG_strcat_to+1 
	MOVLW       ?lstr7_UART+0
	MOVWF       FARG_strcat_from+0 
	MOVLW       hi_addr(?lstr7_UART+0)
	MOVWF       FARG_strcat_from+1 
	CALL        _strcat+0, 0
;UART.c,320 :: 		strcat(msg_unite, convertCharToString(0x20));
	MOVLW       32
	MOVWF       FARG_convertCharToString_value+0 
	CALL        _convertCharToString+0, 0
	MOVF        R0, 0 
	MOVWF       FARG_strcat_from+0 
	MOVF        R1, 0 
	MOVWF       FARG_strcat_from+1 
	MOVLW       _msg_unite+0
	MOVWF       FARG_strcat_to+0 
	MOVLW       hi_addr(_msg_unite+0)
	MOVWF       FARG_strcat_to+1 
	CALL        _strcat+0, 0
;UART.c,321 :: 		strcat(msg_unite, vdd_string);
	MOVLW       _msg_unite+0
	MOVWF       FARG_strcat_to+0 
	MOVLW       hi_addr(_msg_unite+0)
	MOVWF       FARG_strcat_to+1 
	MOVLW       generateVddUnit_vdd_string_L0+0
	MOVWF       FARG_strcat_from+0 
	MOVLW       hi_addr(generateVddUnit_vdd_string_L0+0)
	MOVWF       FARG_strcat_from+1 
	CALL        _strcat+0, 0
;UART.c,322 :: 		strcat(msg_unite, convertCharToString(0x20));
	MOVLW       32
	MOVWF       FARG_convertCharToString_value+0 
	CALL        _convertCharToString+0, 0
	MOVF        R0, 0 
	MOVWF       FARG_strcat_from+0 
	MOVF        R1, 0 
	MOVWF       FARG_strcat_from+1 
	MOVLW       _msg_unite+0
	MOVWF       FARG_strcat_to+0 
	MOVLW       hi_addr(_msg_unite+0)
	MOVWF       FARG_strcat_to+1 
	CALL        _strcat+0, 0
;UART.c,323 :: 		strcat(msg_unite, convertCharToString(sum));
	MOVF        _sum+0, 0 
	MOVWF       FARG_convertCharToString_value+0 
	CALL        _convertCharToString+0, 0
	MOVF        R0, 0 
	MOVWF       FARG_strcat_from+0 
	MOVF        R1, 0 
	MOVWF       FARG_strcat_from+1 
	MOVLW       _msg_unite+0
	MOVWF       FARG_strcat_to+0 
	MOVLW       hi_addr(_msg_unite+0)
	MOVWF       FARG_strcat_to+1 
	CALL        _strcat+0, 0
;UART.c,324 :: 		strcat(msg_unite, convertCharToString(unitStopBit));
	MOVLW       13
	MOVWF       FARG_convertCharToString_value+0 
	CALL        _convertCharToString+0, 0
	MOVF        R0, 0 
	MOVWF       FARG_strcat_from+0 
	MOVF        R1, 0 
	MOVWF       FARG_strcat_from+1 
	MOVLW       _msg_unite+0
	MOVWF       FARG_strcat_to+0 
	MOVLW       hi_addr(_msg_unite+0)
	MOVWF       FARG_strcat_to+1 
	CALL        _strcat+0, 0
;UART.c,326 :: 		strcpy(vdd_unit, msg_unite);
	MOVLW       _vdd_unit+0
	MOVWF       FARG_strcpy_to+0 
	MOVLW       hi_addr(_vdd_unit+0)
	MOVWF       FARG_strcpy_to+1 
	MOVLW       _msg_unite+0
	MOVWF       FARG_strcpy_from+0 
	MOVLW       hi_addr(_msg_unite+0)
	MOVWF       FARG_strcpy_from+1 
	CALL        _strcpy+0, 0
;UART.c,327 :: 		}
L_end_generateVddUnit:
	RETURN      0
; end of _generateVddUnit

_getTrameTeleinfo:

;UART.c,330 :: 		void getTrameTeleinfo() {
;UART.c,335 :: 		message[0]='\0' ;
	CLRF        _message+0 
;UART.c,336 :: 		car_prec='\0';
	CLRF        _car_prec+0 
;UART.c,337 :: 		ch[0] = '\0';
	CLRF        _ch+0 
;UART.c,340 :: 		WDTCON.SWDTEN = 1;
	BSF         WDTCON+0, 0 
;UART.c,343 :: 		while ( ! (ch[0] == trameStartBit && car_prec == trameEndBit) )
L_getTrameTeleinfo15:
	MOVF        _ch+0, 0 
	XORLW       2
	BTFSS       STATUS+0, 2 
	GOTO        L_getTrameTeleinfo18
	MOVF        _car_prec+0, 0 
	XORLW       3
	BTFSS       STATUS+0, 2 
	GOTO        L_getTrameTeleinfo18
	MOVLW       1
	MOVWF       R0 
	GOTO        L_getTrameTeleinfo17
L_getTrameTeleinfo18:
	CLRF        R0 
L_getTrameTeleinfo17:
	MOVF        R0, 1 
	BTFSS       STATUS+0, 2 
	GOTO        L_getTrameTeleinfo16
;UART.c,345 :: 		car_prec = ch[0] ;
	MOVF        _ch+0, 0 
	MOVWF       _car_prec+0 
;UART.c,350 :: 		while(UART2_Data_Ready() != 1){}
L_getTrameTeleinfo19:
	CALL        _UART2_Data_Ready+0, 0
	MOVF        R0, 0 
	XORLW       1
	BTFSC       STATUS+0, 2 
	GOTO        L_getTrameTeleinfo20
	GOTO        L_getTrameTeleinfo19
L_getTrameTeleinfo20:
;UART.c,352 :: 		ch[0] = ConvertSerial_7E1_to_8N1(UART2_Read());
	CALL        _UART2_Read+0, 0
	MOVF        R0, 0 
	MOVWF       FARG_ConvertSerial_7E1_to_8N1_serialInput+0 
	CALL        _ConvertSerial_7E1_to_8N1+0, 0
	MOVF        R0, 0 
	MOVWF       _ch+0 
;UART.c,366 :: 		}
	GOTO        L_getTrameTeleinfo15
L_getTrameTeleinfo16:
;UART.c,374 :: 		while(1)
L_getTrameTeleinfo21:
;UART.c,376 :: 		while(UART2_Data_Ready() != 1){}
L_getTrameTeleinfo23:
	CALL        _UART2_Data_Ready+0, 0
	MOVF        R0, 0 
	XORLW       1
	BTFSC       STATUS+0, 2 
	GOTO        L_getTrameTeleinfo24
	GOTO        L_getTrameTeleinfo23
L_getTrameTeleinfo24:
;UART.c,377 :: 		ch[0] = ConvertSerial_7E1_to_8N1(UART2_Read());
	CALL        _UART2_Read+0, 0
	MOVF        R0, 0 
	MOVWF       FARG_ConvertSerial_7E1_to_8N1_serialInput+0 
	CALL        _ConvertSerial_7E1_to_8N1+0, 0
	MOVF        R0, 0 
	MOVWF       _ch+0 
;UART.c,381 :: 		ch[1] ='\0' ;
	CLRF        _ch+1 
;UART.c,383 :: 		if  (ch[0] == trameEndBit)
	MOVF        _ch+0, 0 
	XORLW       3
	BTFSS       STATUS+0, 2 
	GOTO        L_getTrameTeleinfo25
;UART.c,384 :: 		break;
	GOTO        L_getTrameTeleinfo22
L_getTrameTeleinfo25:
;UART.c,386 :: 		strcat(message, ch) ;
	MOVLW       _message+0
	MOVWF       FARG_strcat_to+0 
	MOVLW       hi_addr(_message+0)
	MOVWF       FARG_strcat_to+1 
	MOVLW       _ch+0
	MOVWF       FARG_strcat_from+0 
	MOVLW       hi_addr(_ch+0)
	MOVWF       FARG_strcat_from+1 
	CALL        _strcat+0, 0
;UART.c,387 :: 		}
	GOTO        L_getTrameTeleinfo21
L_getTrameTeleinfo22:
;UART.c,391 :: 		WDTCON.SWDTEN = 0;
	BCF         WDTCON+0, 0 
;UART.c,396 :: 		}
L_end_getTrameTeleinfo:
	RETURN      0
; end of _getTrameTeleinfo

_checkTrameChecksum:

;UART.c,400 :: 		int checkTrameChecksum(void) {
;UART.c,401 :: 		int isOK = 0;
	CLRF        checkTrameChecksum_isOK_L0+0 
	CLRF        checkTrameChecksum_isOK_L0+1 
;UART.c,402 :: 		msg_unite[0] = '\0';
	CLRF        _msg_unite+0 
;UART.c,403 :: 		for (j=0; j<strlen(message); j++)
	CLRF        _j+0 
	CLRF        _j+1 
L_checkTrameChecksum27:
	MOVLW       _message+0
	MOVWF       FARG_strlen_s+0 
	MOVLW       hi_addr(_message+0)
	MOVWF       FARG_strlen_s+1 
	CALL        _strlen+0, 0
	MOVLW       128
	XORWF       _j+1, 0 
	MOVWF       R2 
	MOVLW       128
	XORWF       R1, 0 
	SUBWF       R2, 0 
	BTFSS       STATUS+0, 2 
	GOTO        L__checkTrameChecksum76
	MOVF        R0, 0 
	SUBWF       _j+0, 0 
L__checkTrameChecksum76:
	BTFSC       STATUS+0, 0 
	GOTO        L_checkTrameChecksum28
;UART.c,405 :: 		currentChar =  message[j];
	MOVLW       _message+0
	ADDWF       _j+0, 0 
	MOVWF       FSR0 
	MOVLW       hi_addr(_message+0)
	ADDWFC      _j+1, 0 
	MOVWF       FSR0H 
	MOVF        POSTINC0+0, 0 
	MOVWF       R1 
	MOVF        R1, 0 
	MOVWF       _currentChar+0 
;UART.c,412 :: 		if (currentChar != unitStartBit && currentChar != unitStopBit)
	MOVF        R1, 0 
	XORLW       10
	BTFSC       STATUS+0, 2 
	GOTO        L_checkTrameChecksum32
	MOVF        _currentChar+0, 0 
	XORLW       13
	BTFSC       STATUS+0, 2 
	GOTO        L_checkTrameChecksum32
L__checkTrameChecksum67:
;UART.c,415 :: 		chartostring[0] = currentChar;
	MOVF        _currentChar+0, 0 
	MOVWF       checkTrameChecksum_chartostring_L2+0 
;UART.c,416 :: 		chartostring[1] = '\0';
	CLRF        checkTrameChecksum_chartostring_L2+1 
;UART.c,418 :: 		strcat(msg_unite, chartostring);
	MOVLW       _msg_unite+0
	MOVWF       FARG_strcat_to+0 
	MOVLW       hi_addr(_msg_unite+0)
	MOVWF       FARG_strcat_to+1 
	MOVLW       checkTrameChecksum_chartostring_L2+0
	MOVWF       FARG_strcat_from+0 
	MOVLW       hi_addr(checkTrameChecksum_chartostring_L2+0)
	MOVWF       FARG_strcat_from+1 
	CALL        _strcat+0, 0
;UART.c,419 :: 		}
L_checkTrameChecksum32:
;UART.c,421 :: 		if (message[j] == unitStopBit)
	MOVLW       _message+0
	ADDWF       _j+0, 0 
	MOVWF       FSR0 
	MOVLW       hi_addr(_message+0)
	ADDWFC      _j+1, 0 
	MOVWF       FSR0H 
	MOVF        POSTINC0+0, 0 
	XORLW       13
	BTFSS       STATUS+0, 2 
	GOTO        L_checkTrameChecksum33
;UART.c,429 :: 		isOK = checkTrameUniteChecksum();
	CALL        _checkTrameUniteChecksum+0, 0
	MOVF        R0, 0 
	MOVWF       checkTrameChecksum_isOK_L0+0 
	MOVF        R1, 0 
	MOVWF       checkTrameChecksum_isOK_L0+1 
;UART.c,430 :: 		msg_unite[0] = '\0';
	CLRF        _msg_unite+0 
;UART.c,440 :: 		if (isOK == 0)
	MOVLW       0
	XORWF       R1, 0 
	BTFSS       STATUS+0, 2 
	GOTO        L__checkTrameChecksum77
	MOVLW       0
	XORWF       R0, 0 
L__checkTrameChecksum77:
	BTFSS       STATUS+0, 2 
	GOTO        L_checkTrameChecksum34
;UART.c,442 :: 		return 0;
	CLRF        R0 
	CLRF        R1 
	GOTO        L_end_checkTrameChecksum
;UART.c,443 :: 		}
L_checkTrameChecksum34:
;UART.c,444 :: 		}
L_checkTrameChecksum33:
;UART.c,403 :: 		for (j=0; j<strlen(message); j++)
	INFSNZ      _j+0, 1 
	INCF        _j+1, 1 
;UART.c,445 :: 		}
	GOTO        L_checkTrameChecksum27
L_checkTrameChecksum28:
;UART.c,447 :: 		if (isOK == 0)
	MOVLW       0
	XORWF       checkTrameChecksum_isOK_L0+1, 0 
	BTFSS       STATUS+0, 2 
	GOTO        L__checkTrameChecksum78
	MOVLW       0
	XORWF       checkTrameChecksum_isOK_L0+0, 0 
L__checkTrameChecksum78:
	BTFSS       STATUS+0, 2 
	GOTO        L_checkTrameChecksum35
;UART.c,452 :: 		return 0;
	CLRF        R0 
	CLRF        R1 
	GOTO        L_end_checkTrameChecksum
;UART.c,453 :: 		}
L_checkTrameChecksum35:
;UART.c,459 :: 		return 1;
	MOVLW       1
	MOVWF       R0 
	MOVLW       0
	MOVWF       R1 
;UART.c,461 :: 		}
L_end_checkTrameChecksum:
	RETURN      0
; end of _checkTrameChecksum

_checkTrameUniteChecksum:

;UART.c,462 :: 		int checkTrameUniteChecksum (void) {
;UART.c,463 :: 		sum = 0 ;    // Somme des codes ASCII du message
	CLRF        _sum+0 
;UART.c,464 :: 		nbchar = strlen(msg_unite);
	MOVLW       _msg_unite+0
	MOVWF       FARG_strlen_s+0 
	MOVLW       hi_addr(_msg_unite+0)
	MOVWF       FARG_strlen_s+1 
	CALL        _strlen+0, 0
	MOVF        R0, 0 
	MOVWF       _nbchar+0 
	MOVF        R1, 0 
	MOVWF       _nbchar+1 
;UART.c,465 :: 		checksumValue = msg_unite[nbchar-1];
	MOVLW       1
	SUBWF       R0, 1 
	MOVLW       0
	SUBWFB      R1, 1 
	MOVLW       _msg_unite+0
	ADDWF       R0, 0 
	MOVWF       FSR0 
	MOVLW       hi_addr(_msg_unite+0)
	ADDWFC      R1, 0 
	MOVWF       FSR0H 
	MOVF        POSTINC0+0, 0 
	MOVWF       _checksumValue+0 
;UART.c,468 :: 		k=0;
	CLRF        _k+0 
	CLRF        _k+1 
;UART.c,469 :: 		for (k=0;k<nbchar-2;k++)
	CLRF        _k+0 
	CLRF        _k+1 
L_checkTrameUniteChecksum37:
	MOVLW       2
	SUBWF       _nbchar+0, 0 
	MOVWF       R1 
	MOVLW       0
	SUBWFB      _nbchar+1, 0 
	MOVWF       R2 
	MOVF        R2, 0 
	SUBWF       _k+1, 0 
	BTFSS       STATUS+0, 2 
	GOTO        L__checkTrameUniteChecksum80
	MOVF        R1, 0 
	SUBWF       _k+0, 0 
L__checkTrameUniteChecksum80:
	BTFSC       STATUS+0, 0 
	GOTO        L_checkTrameUniteChecksum38
;UART.c,471 :: 		sum +=  msg_unite[k];
	MOVLW       _msg_unite+0
	ADDWF       _k+0, 0 
	MOVWF       FSR2 
	MOVLW       hi_addr(_msg_unite+0)
	ADDWFC      _k+1, 0 
	MOVWF       FSR2H 
	MOVF        POSTINC2+0, 0 
	ADDWF       _sum+0, 1 
;UART.c,469 :: 		for (k=0;k<nbchar-2;k++)
	INFSNZ      _k+0, 1 
	INCF        _k+1, 1 
;UART.c,472 :: 		}
	GOTO        L_checkTrameUniteChecksum37
L_checkTrameUniteChecksum38:
;UART.c,474 :: 		sum = (sum & 0x3F) + 0x20 ;
	MOVLW       63
	ANDWF       _sum+0, 0 
	MOVWF       R0 
	MOVLW       32
	ADDWF       R0, 0 
	MOVWF       R1 
	MOVF        R1, 0 
	MOVWF       _sum+0 
;UART.c,475 :: 		if ( sum == checksumValue) {
	MOVF        R1, 0 
	XORWF       _checksumValue+0, 0 
	BTFSS       STATUS+0, 2 
	GOTO        L_checkTrameUniteChecksum40
;UART.c,476 :: 		return 1 ;        // Return 1 si checkum ok.*
	MOVLW       1
	MOVWF       R0 
	MOVLW       0
	MOVWF       R1 
	GOTO        L_end_checkTrameUniteChecksum
;UART.c,477 :: 		}
L_checkTrameUniteChecksum40:
;UART.c,478 :: 		return 0;
	CLRF        R0 
	CLRF        R1 
;UART.c,479 :: 		}
L_end_checkTrameUniteChecksum:
	RETURN      0
; end of _checkTrameUniteChecksum

_generateChecksum:

;UART.c,481 :: 		void generateChecksum() {
;UART.c,482 :: 		sum = 0 ;    // Somme des codes ASCII du message
	CLRF        _sum+0 
;UART.c,483 :: 		nbchar = strlen(msg_unite);
	MOVLW       _msg_unite+0
	MOVWF       FARG_strlen_s+0 
	MOVLW       hi_addr(_msg_unite+0)
	MOVWF       FARG_strlen_s+1 
	CALL        _strlen+0, 0
	MOVF        R0, 0 
	MOVWF       _nbchar+0 
	MOVF        R1, 0 
	MOVWF       _nbchar+1 
;UART.c,487 :: 		k=0;
	CLRF        _k+0 
	CLRF        _k+1 
;UART.c,488 :: 		for (k=0;k<nbchar-1;k++)
	CLRF        _k+0 
	CLRF        _k+1 
L_generateChecksum41:
	MOVLW       1
	SUBWF       _nbchar+0, 0 
	MOVWF       R1 
	MOVLW       0
	SUBWFB      _nbchar+1, 0 
	MOVWF       R2 
	MOVF        R2, 0 
	SUBWF       _k+1, 0 
	BTFSS       STATUS+0, 2 
	GOTO        L__generateChecksum82
	MOVF        R1, 0 
	SUBWF       _k+0, 0 
L__generateChecksum82:
	BTFSC       STATUS+0, 0 
	GOTO        L_generateChecksum42
;UART.c,490 :: 		sum +=  msg_unite[k];
	MOVLW       _msg_unite+0
	ADDWF       _k+0, 0 
	MOVWF       FSR2 
	MOVLW       hi_addr(_msg_unite+0)
	ADDWFC      _k+1, 0 
	MOVWF       FSR2H 
	MOVF        POSTINC2+0, 0 
	ADDWF       _sum+0, 1 
;UART.c,488 :: 		for (k=0;k<nbchar-1;k++)
	INFSNZ      _k+0, 1 
	INCF        _k+1, 1 
;UART.c,491 :: 		}
	GOTO        L_generateChecksum41
L_generateChecksum42:
;UART.c,493 :: 		sum = (sum & 0x3F) + 0x20 ;
	MOVLW       63
	ANDWF       _sum+0, 1 
	MOVLW       32
	ADDWF       _sum+0, 1 
;UART.c,494 :: 		}
L_end_generateChecksum:
	RETURN      0
; end of _generateChecksum

_convertCharToString:

;UART.c,496 :: 		char *convertCharToString(unsigned char value) {
;UART.c,498 :: 		string[0] = value;
	MOVF        FARG_convertCharToString_value+0, 0 
	MOVWF       convertCharToString_string_L0+0 
;UART.c,499 :: 		string[1] = '\0';
	CLRF        convertCharToString_string_L0+1 
;UART.c,500 :: 		return string;
	MOVLW       convertCharToString_string_L0+0
	MOVWF       R0 
	MOVLW       hi_addr(convertCharToString_string_L0+0)
	MOVWF       R1 
;UART.c,501 :: 		}
L_end_convertCharToString:
	RETURN      0
; end of _convertCharToString

_ConvertSerial_8N1_to_7E1:

;UART.c,504 :: 		char ConvertSerial_8N1_to_7E1(unsigned char serialInput) {
;UART.c,505 :: 		int n = 7;
	MOVLW       7
	MOVWF       ConvertSerial_8N1_to_7E1_n_L0+0 
	MOVLW       0
	MOVWF       ConvertSerial_8N1_to_7E1_n_L0+1 
;UART.c,506 :: 		if (get7bitsEvenParity(serialInput) == 0)
	MOVF        FARG_ConvertSerial_8N1_to_7E1_serialInput+0, 0 
	MOVWF       FARG_get7bitsEvenParity_n+0 
	CALL        _get7bitsEvenParity+0, 0
	MOVF        R0, 0 
	XORLW       0
	BTFSS       STATUS+0, 2 
	GOTO        L_ConvertSerial_8N1_to_7E144
;UART.c,508 :: 		serialInput = serialInput & ~(1<<n) ;   //force a 0
	MOVF        ConvertSerial_8N1_to_7E1_n_L0+0, 0 
	MOVWF       R1 
	MOVLW       1
	MOVWF       R0 
	MOVF        R1, 0 
L__ConvertSerial_8N1_to_7E185:
	BZ          L__ConvertSerial_8N1_to_7E186
	RLCF        R0, 1 
	BCF         R0, 0 
	ADDLW       255
	GOTO        L__ConvertSerial_8N1_to_7E185
L__ConvertSerial_8N1_to_7E186:
	COMF        R0, 1 
	MOVF        R0, 0 
	ANDWF       FARG_ConvertSerial_8N1_to_7E1_serialInput+0, 1 
;UART.c,509 :: 		}
	GOTO        L_ConvertSerial_8N1_to_7E145
L_ConvertSerial_8N1_to_7E144:
;UART.c,512 :: 		serialInput = serialInput | (1<<n) ;   //force a 1
	MOVF        ConvertSerial_8N1_to_7E1_n_L0+0, 0 
	MOVWF       R1 
	MOVLW       1
	MOVWF       R0 
	MOVF        R1, 0 
L__ConvertSerial_8N1_to_7E187:
	BZ          L__ConvertSerial_8N1_to_7E188
	RLCF        R0, 1 
	BCF         R0, 0 
	ADDLW       255
	GOTO        L__ConvertSerial_8N1_to_7E187
L__ConvertSerial_8N1_to_7E188:
	MOVF        R0, 0 
	IORWF       FARG_ConvertSerial_8N1_to_7E1_serialInput+0, 1 
;UART.c,513 :: 		}
L_ConvertSerial_8N1_to_7E145:
;UART.c,514 :: 		return serialInput;
	MOVF        FARG_ConvertSerial_8N1_to_7E1_serialInput+0, 0 
	MOVWF       R0 
;UART.c,515 :: 		}
L_end_ConvertSerial_8N1_to_7E1:
	RETURN      0
; end of _ConvertSerial_8N1_to_7E1

_ConvertSerial_7E1_to_8N1:

;UART.c,516 :: 		char ConvertSerial_7E1_to_8N1(unsigned char serialInput) {
;UART.c,517 :: 		int n = 7;
	MOVLW       7
	MOVWF       ConvertSerial_7E1_to_8N1_n_L0+0 
	MOVLW       0
	MOVWF       ConvertSerial_7E1_to_8N1_n_L0+1 
;UART.c,518 :: 		serialInput = serialInput & ~(1<<n) ;   //force a 0
	MOVF        ConvertSerial_7E1_to_8N1_n_L0+0, 0 
	MOVWF       R1 
	MOVLW       1
	MOVWF       R0 
	MOVF        R1, 0 
L__ConvertSerial_7E1_to_8N190:
	BZ          L__ConvertSerial_7E1_to_8N191
	RLCF        R0, 1 
	BCF         R0, 0 
	ADDLW       255
	GOTO        L__ConvertSerial_7E1_to_8N190
L__ConvertSerial_7E1_to_8N191:
	COMF        R0, 1 
	MOVF        FARG_ConvertSerial_7E1_to_8N1_serialInput+0, 0 
	ANDWF       R0, 1 
	MOVF        R0, 0 
	MOVWF       FARG_ConvertSerial_7E1_to_8N1_serialInput+0 
;UART.c,519 :: 		return serialInput;
;UART.c,520 :: 		}
L_end_ConvertSerial_7E1_to_8N1:
	RETURN      0
; end of _ConvertSerial_7E1_to_8N1

_get7bitsEvenParity:

;UART.c,522 :: 		unsigned short get7bitsEvenParity(unsigned char n) {
;UART.c,523 :: 		int x = 7;
	MOVLW       7
	MOVWF       get7bitsEvenParity_x_L0+0 
	MOVLW       0
	MOVWF       get7bitsEvenParity_x_L0+1 
	CLRF        get7bitsEvenParity_parity_L0+0 
;UART.c,526 :: 		n = n & ~(1<<x) ;   //force le 8eme bit à zéro
	MOVF        get7bitsEvenParity_x_L0+0, 0 
	MOVWF       R1 
	MOVLW       1
	MOVWF       R0 
	MOVF        R1, 0 
L__get7bitsEvenParity93:
	BZ          L__get7bitsEvenParity94
	RLCF        R0, 1 
	BCF         R0, 0 
	ADDLW       255
	GOTO        L__get7bitsEvenParity93
L__get7bitsEvenParity94:
	COMF        R0, 1 
	MOVF        R0, 0 
	ANDWF       FARG_get7bitsEvenParity_n+0, 1 
;UART.c,528 :: 		while (n)
L_get7bitsEvenParity46:
	MOVF        FARG_get7bitsEvenParity_n+0, 1 
	BTFSC       STATUS+0, 2 
	GOTO        L_get7bitsEvenParity47
;UART.c,530 :: 		parity = !parity;
	MOVF        get7bitsEvenParity_parity_L0+0, 1 
	MOVLW       1
	BTFSS       STATUS+0, 2 
	MOVLW       0
	MOVWF       get7bitsEvenParity_parity_L0+0 
;UART.c,531 :: 		n      = n & (n - 1);
	DECF        FARG_get7bitsEvenParity_n+0, 0 
	MOVWF       R0 
	MOVF        R0, 0 
	ANDWF       FARG_get7bitsEvenParity_n+0, 1 
;UART.c,532 :: 		}
	GOTO        L_get7bitsEvenParity46
L_get7bitsEvenParity47:
;UART.c,533 :: 		return parity;
	MOVF        get7bitsEvenParity_parity_L0+0, 0 
	MOVWF       R0 
;UART.c,534 :: 		}
L_end_get7bitsEvenParity:
	RETURN      0
; end of _get7bitsEvenParity

_UART1_Write_Text_7E1:

;UART.c,538 :: 		void UART1_Write_Text_7E1(unsigned char text[]) {
;UART.c,540 :: 		unsigned int str_len = 0;
	CLRF        UART1_Write_Text_7E1_str_len_L0+0 
	CLRF        UART1_Write_Text_7E1_str_len_L0+1 
	CLRF        UART1_Write_Text_7E1_i_L0+0 
	CLRF        UART1_Write_Text_7E1_i_L0+1 
;UART.c,543 :: 		str_len = strlen(text);
	MOVF        FARG_UART1_Write_Text_7E1_text+0, 0 
	MOVWF       FARG_strlen_s+0 
	MOVF        FARG_UART1_Write_Text_7E1_text+1, 0 
	MOVWF       FARG_strlen_s+1 
	CALL        _strlen+0, 0
	MOVF        R0, 0 
	MOVWF       UART1_Write_Text_7E1_str_len_L0+0 
	MOVF        R1, 0 
	MOVWF       UART1_Write_Text_7E1_str_len_L0+1 
;UART.c,544 :: 		for(i=0;i<str_len;i++) {
	CLRF        UART1_Write_Text_7E1_i_L0+0 
	CLRF        UART1_Write_Text_7E1_i_L0+1 
L_UART1_Write_Text_7E148:
	MOVF        UART1_Write_Text_7E1_str_len_L0+1, 0 
	SUBWF       UART1_Write_Text_7E1_i_L0+1, 0 
	BTFSS       STATUS+0, 2 
	GOTO        L__UART1_Write_Text_7E196
	MOVF        UART1_Write_Text_7E1_str_len_L0+0, 0 
	SUBWF       UART1_Write_Text_7E1_i_L0+0, 0 
L__UART1_Write_Text_7E196:
	BTFSC       STATUS+0, 0 
	GOTO        L_UART1_Write_Text_7E149
;UART.c,545 :: 		UART1_Write(ConvertSerial_8N1_to_7E1(text[i]));
	MOVF        UART1_Write_Text_7E1_i_L0+0, 0 
	ADDWF       FARG_UART1_Write_Text_7E1_text+0, 0 
	MOVWF       FSR0 
	MOVF        UART1_Write_Text_7E1_i_L0+1, 0 
	ADDWFC      FARG_UART1_Write_Text_7E1_text+1, 0 
	MOVWF       FSR0H 
	MOVF        POSTINC0+0, 0 
	MOVWF       FARG_ConvertSerial_8N1_to_7E1_serialInput+0 
	CALL        _ConvertSerial_8N1_to_7E1+0, 0
	MOVF        R0, 0 
	MOVWF       FARG_UART1_Write_data_+0 
	CALL        _UART1_Write+0, 0
;UART.c,544 :: 		for(i=0;i<str_len;i++) {
	INFSNZ      UART1_Write_Text_7E1_i_L0+0, 1 
	INCF        UART1_Write_Text_7E1_i_L0+1, 1 
;UART.c,546 :: 		}
	GOTO        L_UART1_Write_Text_7E148
L_UART1_Write_Text_7E149:
;UART.c,547 :: 		}
L_end_UART1_Write_Text_7E1:
	RETURN      0
; end of _UART1_Write_Text_7E1

_UART1_Write_Text_8N1:

;UART.c,549 :: 		void UART1_Write_Text_8N1(unsigned char text[]) {
;UART.c,552 :: 		unsigned int str_len = 0;
	CLRF        UART1_Write_Text_8N1_str_len_L0+0 
	CLRF        UART1_Write_Text_8N1_str_len_L0+1 
	CLRF        UART1_Write_Text_8N1_i_L0+0 
	CLRF        UART1_Write_Text_8N1_i_L0+1 
;UART.c,555 :: 		str_len = strlen(text);
	MOVF        FARG_UART1_Write_Text_8N1_text+0, 0 
	MOVWF       FARG_strlen_s+0 
	MOVF        FARG_UART1_Write_Text_8N1_text+1, 0 
	MOVWF       FARG_strlen_s+1 
	CALL        _strlen+0, 0
	MOVF        R0, 0 
	MOVWF       UART1_Write_Text_8N1_str_len_L0+0 
	MOVF        R1, 0 
	MOVWF       UART1_Write_Text_8N1_str_len_L0+1 
;UART.c,556 :: 		for(i=0;i<str_len;i++) {
	CLRF        UART1_Write_Text_8N1_i_L0+0 
	CLRF        UART1_Write_Text_8N1_i_L0+1 
L_UART1_Write_Text_8N151:
	MOVF        UART1_Write_Text_8N1_str_len_L0+1, 0 
	SUBWF       UART1_Write_Text_8N1_i_L0+1, 0 
	BTFSS       STATUS+0, 2 
	GOTO        L__UART1_Write_Text_8N198
	MOVF        UART1_Write_Text_8N1_str_len_L0+0, 0 
	SUBWF       UART1_Write_Text_8N1_i_L0+0, 0 
L__UART1_Write_Text_8N198:
	BTFSC       STATUS+0, 0 
	GOTO        L_UART1_Write_Text_8N152
;UART.c,557 :: 		UART1_Write(text[i]);
	MOVF        UART1_Write_Text_8N1_i_L0+0, 0 
	ADDWF       FARG_UART1_Write_Text_8N1_text+0, 0 
	MOVWF       FSR0 
	MOVF        UART1_Write_Text_8N1_i_L0+1, 0 
	ADDWFC      FARG_UART1_Write_Text_8N1_text+1, 0 
	MOVWF       FSR0H 
	MOVF        POSTINC0+0, 0 
	MOVWF       FARG_UART1_Write_data_+0 
	CALL        _UART1_Write+0, 0
;UART.c,556 :: 		for(i=0;i<str_len;i++) {
	INFSNZ      UART1_Write_Text_8N1_i_L0+0, 1 
	INCF        UART1_Write_Text_8N1_i_L0+1, 1 
;UART.c,558 :: 		}
	GOTO        L_UART1_Write_Text_8N151
L_UART1_Write_Text_8N152:
;UART.c,559 :: 		}
L_end_UART1_Write_Text_8N1:
	RETURN      0
; end of _UART1_Write_Text_8N1

_UART2_Write_Text_7E1:

;UART.c,560 :: 		void UART2_Write_Text_7E1(unsigned char text[]) {
;UART.c,562 :: 		unsigned int str_len = 0;
	CLRF        UART2_Write_Text_7E1_str_len_L0+0 
	CLRF        UART2_Write_Text_7E1_str_len_L0+1 
	CLRF        UART2_Write_Text_7E1_i_L0+0 
	CLRF        UART2_Write_Text_7E1_i_L0+1 
;UART.c,565 :: 		str_len = strlen(text);
	MOVF        FARG_UART2_Write_Text_7E1_text+0, 0 
	MOVWF       FARG_strlen_s+0 
	MOVF        FARG_UART2_Write_Text_7E1_text+1, 0 
	MOVWF       FARG_strlen_s+1 
	CALL        _strlen+0, 0
	MOVF        R0, 0 
	MOVWF       UART2_Write_Text_7E1_str_len_L0+0 
	MOVF        R1, 0 
	MOVWF       UART2_Write_Text_7E1_str_len_L0+1 
;UART.c,566 :: 		for(i=0;i<str_len;i++) {
	CLRF        UART2_Write_Text_7E1_i_L0+0 
	CLRF        UART2_Write_Text_7E1_i_L0+1 
L_UART2_Write_Text_7E154:
	MOVF        UART2_Write_Text_7E1_str_len_L0+1, 0 
	SUBWF       UART2_Write_Text_7E1_i_L0+1, 0 
	BTFSS       STATUS+0, 2 
	GOTO        L__UART2_Write_Text_7E1100
	MOVF        UART2_Write_Text_7E1_str_len_L0+0, 0 
	SUBWF       UART2_Write_Text_7E1_i_L0+0, 0 
L__UART2_Write_Text_7E1100:
	BTFSC       STATUS+0, 0 
	GOTO        L_UART2_Write_Text_7E155
;UART.c,567 :: 		UART2_Write(ConvertSerial_8N1_to_7E1(text[i]));
	MOVF        UART2_Write_Text_7E1_i_L0+0, 0 
	ADDWF       FARG_UART2_Write_Text_7E1_text+0, 0 
	MOVWF       FSR0 
	MOVF        UART2_Write_Text_7E1_i_L0+1, 0 
	ADDWFC      FARG_UART2_Write_Text_7E1_text+1, 0 
	MOVWF       FSR0H 
	MOVF        POSTINC0+0, 0 
	MOVWF       FARG_ConvertSerial_8N1_to_7E1_serialInput+0 
	CALL        _ConvertSerial_8N1_to_7E1+0, 0
	MOVF        R0, 0 
	MOVWF       FARG_UART2_Write_data_+0 
	CALL        _UART2_Write+0, 0
;UART.c,566 :: 		for(i=0;i<str_len;i++) {
	INFSNZ      UART2_Write_Text_7E1_i_L0+0, 1 
	INCF        UART2_Write_Text_7E1_i_L0+1, 1 
;UART.c,568 :: 		}
	GOTO        L_UART2_Write_Text_7E154
L_UART2_Write_Text_7E155:
;UART.c,569 :: 		}
L_end_UART2_Write_Text_7E1:
	RETURN      0
; end of _UART2_Write_Text_7E1

_UART2_Write_Text_8N1:

;UART.c,571 :: 		void UART2_Write_Text_8N1(unsigned char text[]) {
;UART.c,574 :: 		unsigned int str_len = 0;
	CLRF        UART2_Write_Text_8N1_str_len_L0+0 
	CLRF        UART2_Write_Text_8N1_str_len_L0+1 
	CLRF        UART2_Write_Text_8N1_i_L0+0 
	CLRF        UART2_Write_Text_8N1_i_L0+1 
;UART.c,577 :: 		str_len = strlen(text);
	MOVF        FARG_UART2_Write_Text_8N1_text+0, 0 
	MOVWF       FARG_strlen_s+0 
	MOVF        FARG_UART2_Write_Text_8N1_text+1, 0 
	MOVWF       FARG_strlen_s+1 
	CALL        _strlen+0, 0
	MOVF        R0, 0 
	MOVWF       UART2_Write_Text_8N1_str_len_L0+0 
	MOVF        R1, 0 
	MOVWF       UART2_Write_Text_8N1_str_len_L0+1 
;UART.c,578 :: 		for(i=0;i<str_len;i++) {
	CLRF        UART2_Write_Text_8N1_i_L0+0 
	CLRF        UART2_Write_Text_8N1_i_L0+1 
L_UART2_Write_Text_8N157:
	MOVF        UART2_Write_Text_8N1_str_len_L0+1, 0 
	SUBWF       UART2_Write_Text_8N1_i_L0+1, 0 
	BTFSS       STATUS+0, 2 
	GOTO        L__UART2_Write_Text_8N1102
	MOVF        UART2_Write_Text_8N1_str_len_L0+0, 0 
	SUBWF       UART2_Write_Text_8N1_i_L0+0, 0 
L__UART2_Write_Text_8N1102:
	BTFSC       STATUS+0, 0 
	GOTO        L_UART2_Write_Text_8N158
;UART.c,579 :: 		UART2_Write(text[i]);
	MOVF        UART2_Write_Text_8N1_i_L0+0, 0 
	ADDWF       FARG_UART2_Write_Text_8N1_text+0, 0 
	MOVWF       FSR0 
	MOVF        UART2_Write_Text_8N1_i_L0+1, 0 
	ADDWFC      FARG_UART2_Write_Text_8N1_text+1, 0 
	MOVWF       FSR0H 
	MOVF        POSTINC0+0, 0 
	MOVWF       FARG_UART2_Write_data_+0 
	CALL        _UART2_Write+0, 0
;UART.c,578 :: 		for(i=0;i<str_len;i++) {
	INFSNZ      UART2_Write_Text_8N1_i_L0+0, 1 
	INCF        UART2_Write_Text_8N1_i_L0+1, 1 
;UART.c,580 :: 		}
	GOTO        L_UART2_Write_Text_8N157
L_UART2_Write_Text_8N158:
;UART.c,581 :: 		}
L_end_UART2_Write_Text_8N1:
	RETURN      0
; end of _UART2_Write_Text_8N1

_ledBlink:

;UART.c,585 :: 		void ledBlink(int nbBlink)
;UART.c,587 :: 		int cnt = 0;
	CLRF        ledBlink_cnt_L0+0 
	CLRF        ledBlink_cnt_L0+1 
;UART.c,588 :: 		for (cnt = 0;cnt < nbBlink;cnt++)
	CLRF        ledBlink_cnt_L0+0 
	CLRF        ledBlink_cnt_L0+1 
L_ledBlink60:
	MOVLW       128
	XORWF       ledBlink_cnt_L0+1, 0 
	MOVWF       R0 
	MOVLW       128
	XORWF       FARG_ledBlink_nbBlink+1, 0 
	SUBWF       R0, 0 
	BTFSS       STATUS+0, 2 
	GOTO        L__ledBlink104
	MOVF        FARG_ledBlink_nbBlink+0, 0 
	SUBWF       ledBlink_cnt_L0+0, 0 
L__ledBlink104:
	BTFSC       STATUS+0, 0 
	GOTO        L_ledBlink61
;UART.c,590 :: 		PORTA.B3 = 1;
	BSF         PORTA+0, 3 
;UART.c,591 :: 		Delay_ms(100);
	MOVLW       2
	MOVWF       R11, 0
	MOVLW       4
	MOVWF       R12, 0
	MOVLW       186
	MOVWF       R13, 0
L_ledBlink63:
	DECFSZ      R13, 1, 1
	BRA         L_ledBlink63
	DECFSZ      R12, 1, 1
	BRA         L_ledBlink63
	DECFSZ      R11, 1, 1
	BRA         L_ledBlink63
	NOP
;UART.c,592 :: 		PORTA.B3 = 0;
	BCF         PORTA+0, 3 
;UART.c,593 :: 		Delay_ms(100);
	MOVLW       2
	MOVWF       R11, 0
	MOVLW       4
	MOVWF       R12, 0
	MOVLW       186
	MOVWF       R13, 0
L_ledBlink64:
	DECFSZ      R13, 1, 1
	BRA         L_ledBlink64
	DECFSZ      R12, 1, 1
	BRA         L_ledBlink64
	DECFSZ      R11, 1, 1
	BRA         L_ledBlink64
	NOP
;UART.c,588 :: 		for (cnt = 0;cnt < nbBlink;cnt++)
	INFSNZ      ledBlink_cnt_L0+0, 1 
	INCF        ledBlink_cnt_L0+1, 1 
;UART.c,594 :: 		}
	GOTO        L_ledBlink60
L_ledBlink61:
;UART.c,595 :: 		}
L_end_ledBlink:
	RETURN      0
; end of _ledBlink

_getVddVoltage:

;UART.c,597 :: 		float getVddVoltage()
;UART.c,604 :: 		int adc_val = 0;
;UART.c,613 :: 		FVRCON = 0b11100000 ;
	MOVLW       224
	MOVWF       FVRCON+0 
;UART.c,619 :: 		ADCON1 = 0b00001000;
	MOVLW       8
	MOVWF       ADCON1+0 
;UART.c,620 :: 		ADCON2 = 0b10000000;
	MOVLW       128
	MOVWF       ADCON2+0 
;UART.c,625 :: 		ADCON0.CHS0 = 0;
	BCF         ADCON0+0, 2 
;UART.c,626 :: 		ADCON0.CHS1 = 0;
	BCF         ADCON0+0, 3 
;UART.c,627 :: 		ADCON0.CHS2 = 0;
	BCF         ADCON0+0, 4 
;UART.c,628 :: 		ADCON0.CHS3 = 0;
	BCF         ADCON0+0, 5 
;UART.c,629 :: 		ADCON0.CHS4 = 0;
	BCF         ADCON0+0, 6 
;UART.c,630 :: 		ADCON0.ADON = 1;  // enable A/D converter
	BSF         ADCON0+0, 0 
;UART.c,632 :: 		ADCON0.F1 = 1;     // start conversion, GO/DONE = 1
	BSF         ADCON0+0, 1 
;UART.c,633 :: 		while (ADCON0.F1); // wait for conversion
L_getVddVoltage65:
	BTFSS       ADCON0+0, 1 
	GOTO        L_getVddVoltage66
	GOTO        L_getVddVoltage65
L_getVddVoltage66:
;UART.c,635 :: 		ADC_Value = (ADRESH << 8) + ADRESL;
	MOVF        ADRESH+0, 0 
	MOVWF       R1 
	CLRF        R0 
	MOVF        ADRESL+0, 0 
	ADDWF       R0, 0 
	MOVWF       R3 
	MOVLW       0
	ADDWFC      R1, 0 
	MOVWF       R4 
;UART.c,641 :: 		vdd = (ADC_Value * 2);
	MOVF        R3, 0 
	MOVWF       R0 
	MOVF        R4, 0 
	MOVWF       R1 
	RLCF        R0, 1 
	BCF         R0, 0 
	RLCF        R1, 1 
	CALL        _Word2Double+0, 0
	MOVF        R0, 0 
	MOVWF       getVddVoltage_vdd_L0+0 
	MOVF        R1, 0 
	MOVWF       getVddVoltage_vdd_L0+1 
	MOVF        R2, 0 
	MOVWF       getVddVoltage_vdd_L0+2 
	MOVF        R3, 0 
	MOVWF       getVddVoltage_vdd_L0+3 
;UART.c,642 :: 		vdd = vdd / 10000;
	MOVLW       0
	MOVWF       R4 
	MOVLW       64
	MOVWF       R5 
	MOVLW       28
	MOVWF       R6 
	MOVLW       140
	MOVWF       R7 
	CALL        _Div_32x32_FP+0, 0
	MOVF        R0, 0 
	MOVWF       getVddVoltage_vdd_L0+0 
	MOVF        R1, 0 
	MOVWF       getVddVoltage_vdd_L0+1 
	MOVF        R2, 0 
	MOVWF       getVddVoltage_vdd_L0+2 
	MOVF        R3, 0 
	MOVWF       getVddVoltage_vdd_L0+3 
;UART.c,644 :: 		vdd_string[0] = '\0';
	CLRF        getVddVoltage_vdd_string_L0+0 
;UART.c,646 :: 		FloatToStr(vdd, vdd_string);
	MOVF        R0, 0 
	MOVWF       FARG_FloatToStr_fnum+0 
	MOVF        R1, 0 
	MOVWF       FARG_FloatToStr_fnum+1 
	MOVF        R2, 0 
	MOVWF       FARG_FloatToStr_fnum+2 
	MOVF        R3, 0 
	MOVWF       FARG_FloatToStr_fnum+3 
	MOVLW       getVddVoltage_vdd_string_L0+0
	MOVWF       FARG_FloatToStr_str+0 
	MOVLW       hi_addr(getVddVoltage_vdd_string_L0+0)
	MOVWF       FARG_FloatToStr_str+1 
	CALL        _FloatToStr+0, 0
;UART.c,652 :: 		UART1_Write_Text_7E1("ADC Value : ");
	MOVLW       ?lstr8_UART+0
	MOVWF       FARG_UART1_Write_Text_7E1_text+0 
	MOVLW       hi_addr(?lstr8_UART+0)
	MOVWF       FARG_UART1_Write_Text_7E1_text+1 
	CALL        _UART1_Write_Text_7E1+0, 0
;UART.c,653 :: 		UART1_Write_Text_7E1(vdd_string);
	MOVLW       getVddVoltage_vdd_string_L0+0
	MOVWF       FARG_UART1_Write_Text_7E1_text+0 
	MOVLW       hi_addr(getVddVoltage_vdd_string_L0+0)
	MOVWF       FARG_UART1_Write_Text_7E1_text+1 
	CALL        _UART1_Write_Text_7E1+0, 0
;UART.c,654 :: 		UART1_Write_Text_7E1("\r\n");
	MOVLW       ?lstr9_UART+0
	MOVWF       FARG_UART1_Write_Text_7E1_text+0 
	MOVLW       hi_addr(?lstr9_UART+0)
	MOVWF       FARG_UART1_Write_Text_7E1_text+1 
	CALL        _UART1_Write_Text_7E1+0, 0
;UART.c,656 :: 		UART1_Write_Text_7E1("DATA Voltage : ");
	MOVLW       ?lstr10_UART+0
	MOVWF       FARG_UART1_Write_Text_7E1_text+0 
	MOVLW       hi_addr(?lstr10_UART+0)
	MOVWF       FARG_UART1_Write_Text_7E1_text+1 
	CALL        _UART1_Write_Text_7E1+0, 0
;UART.c,657 :: 		UART1_Write_Text_7E1(vdd_string);
	MOVLW       getVddVoltage_vdd_string_L0+0
	MOVWF       FARG_UART1_Write_Text_7E1_text+0 
	MOVLW       hi_addr(getVddVoltage_vdd_string_L0+0)
	MOVWF       FARG_UART1_Write_Text_7E1_text+1 
	CALL        _UART1_Write_Text_7E1+0, 0
;UART.c,658 :: 		UART1_Write_Text_7E1("\r\n");
	MOVLW       ?lstr11_UART+0
	MOVWF       FARG_UART1_Write_Text_7E1_text+0 
	MOVLW       hi_addr(?lstr11_UART+0)
	MOVWF       FARG_UART1_Write_Text_7E1_text+1 
	CALL        _UART1_Write_Text_7E1+0, 0
;UART.c,660 :: 		return vdd;
	MOVF        getVddVoltage_vdd_L0+0, 0 
	MOVWF       R0 
	MOVF        getVddVoltage_vdd_L0+1, 0 
	MOVWF       R1 
	MOVF        getVddVoltage_vdd_L0+2, 0 
	MOVWF       R2 
	MOVF        getVddVoltage_vdd_L0+3, 0 
	MOVWF       R3 
;UART.c,716 :: 		}
L_end_getVddVoltage:
	RETURN      0
; end of _getVddVoltage
